target datalayout = "e-m:e-p270:32:32-p271:32:32-p272:64:64-i64:64-i128:128-f80:128-n8:16:32:64-S128"
target triple = "x86_64-pc-linux-gnu"

@agent_max_cnt = dso_local global i32 32, align 4
@.str.8 = private unnamed_addr constant [49 x i8] c"pmi server max threads must be greater than zero\00", align 1

; Function Attrs: nounwind uwtable
define dso_local void @pmi_server_max_threads(i32 noundef %0) #0 {
  %2 = alloca i32, align 4
  store i32 %0, ptr %2, align 4
  %3 = load i32, ptr %2, align 4
  %4 = icmp sle i32 %3, 0
  br i1 %4, label %5, label %7

5:                                                ; preds = %1
  %6 = call i32 (ptr, ...) @error(ptr noundef @.str.8)
  br label %9

7:                                                ; preds = %1
  %8 = load i32, ptr %2, align 4
  store i32 %8, ptr @agent_max_cnt, align 4
  br label %9

9:                                                ; preds = %7, %5
  ret void
}