; Function Attrs: nounwind uwtable
define dso_local void @pmi_server_max_threads(i32 noundef %0) local_unnamed_addr #0 {
  %2 = icmp slt i32 %0, 1
  br i1 %2, label %3, label %5

3:                                                ; preds = %1
  %4 = tail call i32 (ptr, ...) @error(ptr noundef nonnull @.str.8) #12
  br label %6

5:                                                ; preds = %1
  store i32 %0, ptr @agent_max_cnt, align 4
  br label %6

6:                                                ; preds = %5, %3
  ret void
}